(iUsers
User
p1
(dp2
S'name'
p3
S'Andy Woerpel'
p4
sS'ExecuteWorkOrder'
p5
I01
sS'Admin'
p6
I01
sS'editWorkMaterials'
p7
I00
sS'userType'
p8
I3
sS'createCustomer'
p9
I00
sS'SetPriority'
p10
I01
sS'CreateWorkOrder'
p11
I01
sS'password'
p12
S'cats'
p13
sb.