(iUsers
User
p1
(dp2
S'name'
p3
S'Dummy'
p4
sS'ExecuteWorkOrder'
p5
I00
sS'Admin'
p6
I00
sS'editWorkMaterials'
p7
I00
sS'userType'
p8
I1
sS'createCustomer'
p9
I00
sS'SetPriority'
p10
I00
sS'CreateWorkOrder'
p11
I01
sS'password'
p12
S''
sb.